target datalayout = "e-m:e-p270:32:32-p271:32:32-p272:64:64-i64:64-i128:128-f80:128-n8:16:32:64-S128"
target triple = "x86_64-pc-linux-gnu"

; Function Attrs: null_pointer_is_valid sspstrong uwtable
define i32 @dissect_dcerpc_uint32(ptr noundef %0, i32 noundef %1, ptr noundef %2, ptr noundef %3, ptr noundef %4, i32 noundef %5, ptr noundef %6) #0 {
  %8 = alloca ptr, align 8
  %9 = alloca i32, align 4
  %10 = alloca ptr, align 8
  %11 = alloca ptr, align 8
  %12 = alloca ptr, align 8
  %13 = alloca i32, align 4
  %14 = alloca ptr, align 8
  %15 = alloca i32, align 4
  store ptr %0, ptr %8, align 8
  store i32 %1, ptr %9, align 4
  store ptr %2, ptr %10, align 8
  store ptr %3, ptr %11, align 8
  store ptr %4, ptr %12, align 8
  store i32 %5, ptr %13, align 4
  store ptr %6, ptr %14, align 8
  call void @llvm.lifetime.start.p0(i64 4, ptr %15) #19
  %16 = load ptr, ptr %12, align 8
  %17 = getelementptr i8, ptr %16, i64 0
  %18 = load i8, ptr %17, align 1
  %19 = zext i8 %18 to i32
  %20 = and i32 %19, 16
  %21 = icmp ne i32 %20, 0
  br i1 %21, label %22, label %26

22:                                               ; preds = %7
  %23 = load ptr, ptr %8, align 8
  %24 = load i32, ptr %9, align 4
  %25 = call i32 @tvb_get_letohl(ptr noundef %23, i32 noundef %24)
  br label %30

26:                                               ; preds = %7
  %27 = load ptr, ptr %8, align 8
  %28 = load i32, ptr %9, align 4
  %29 = call i32 @tvb_get_ntohl(ptr noundef %27, i32 noundef %28)
  br label %30

30:                                               ; preds = %26, %22
  %31 = phi i32 [ %25, %22 ], [ %29, %26 ]
  store i32 %31, ptr %15, align 4
  %32 = load i32, ptr %13, align 4
  %33 = icmp ne i32 %32, -1
  br i1 %33, label %34, label %47

34:                                               ; preds = %30
  %35 = load ptr, ptr %11, align 8
  %36 = load i32, ptr %13, align 4
  %37 = load ptr, ptr %8, align 8
  %38 = load i32, ptr %9, align 4
  %39 = load ptr, ptr %12, align 8
  %40 = getelementptr i8, ptr %39, i64 0
  %41 = load i8, ptr %40, align 1
  %42 = zext i8 %41 to i32
  %43 = and i32 %42, 16
  %44 = icmp ne i32 %43, 0
  %45 = select i1 %44, i32 -2147483648, i32 0
  %46 = call ptr @proto_tree_add_item(ptr noundef %35, i32 noundef %36, ptr noundef %37, i32 noundef %38, i32 noundef 4, i32 noundef %45)
  br label %47

47:                                               ; preds = %34, %30
  %48 = load ptr, ptr %14, align 8
  %49 = icmp ne ptr %48, null
  br i1 %49, label %50, label %53

50:                                               ; preds = %47
  %51 = load i32, ptr %15, align 4
  %52 = load ptr, ptr %14, align 8
  store i32 %51, ptr %52, align 4
  br label %53

53:                                               ; preds = %50, %47
  %54 = load ptr, ptr %8, align 8
  %55 = load i32, ptr %9, align 4
  call void @tvb_ensure_bytes_exist(ptr noundef %54, i32 noundef %55, i32 noundef 4)
  %56 = load i32, ptr %9, align 4
  %57 = add i32 %56, 4
  call void @llvm.lifetime.end.p0(i64 4, ptr %15) #19
  ret i32 %57
}