; Function Attrs: null_pointer_is_valid sspstrong uwtable
define noundef i32 @dissect_dcerpc_uint32(ptr noundef %0, i32 noundef %1, ptr noundef readnone captures(none) %2, ptr noundef %3, ptr noundef readonly captures(none) %4, i32 noundef %5, ptr noundef writeonly captures(address_is_null) %6) local_unnamed_addr #0 {
  %8 = load i8, ptr %4, align 1
  %9 = and i8 %8, 16
  %.not = icmp eq i8 %9, 0
  br i1 %.not, label %12, label %10

10:                                               ; preds = %7
  %11 = tail call i32 @tvb_get_letohl(ptr noundef %0, i32 noundef %1)
  br label %14

12:                                               ; preds = %7
  %13 = tail call i32 @tvb_get_ntohl(ptr noundef %0, i32 noundef %1)
  br label %14

14:                                               ; preds = %12, %10
  %15 = phi i32 [ %11, %10 ], [ %13, %12 ]
  %.not17 = icmp eq i32 %5, -1
  br i1 %.not17, label %22, label %16

16:                                               ; preds = %14
  %17 = load i8, ptr %4, align 1
  %18 = and i8 %17, 16
  %19 = zext nneg i8 %18 to i32
  %20 = shl nuw i32 %19, 27
  %21 = tail call ptr @proto_tree_add_item(ptr noundef %3, i32 noundef %5, ptr noundef %0, i32 noundef %1, i32 noundef 4, i32 noundef %20)
  br label %22

22:                                               ; preds = %16, %14
  %.not19 = icmp eq ptr %6, null
  br i1 %.not19, label %24, label %23

23:                                               ; preds = %22
  store i32 %15, ptr %6, align 4
  br label %24

24:                                               ; preds = %23, %22
  tail call void @tvb_ensure_bytes_exist(ptr noundef %0, i32 noundef %1, i32 noundef 4)
  %25 = add i32 %1, 4
  ret i32 %25
}